target datalayout = "e-m:e-p270:32:32-p271:32:32-p272:64:64-i64:64-i128:128-f80:128-n8:16:32:64-S128"
target triple = "x86_64-pc-linux-gnu"

%"struct.Luau::Position" = type { i32, i32 }
%"struct.Luau::Location" = type { %"struct.Luau::Position", %"struct.Luau::Position" }

@stderr = external global ptr, align 8
@stdout = external global ptr, align 8
@.str.86 = private unnamed_addr constant [19 x i8] c"%s(%d,%d): %s: %s\0A\00", align 1
@.str.87 = private unnamed_addr constant [26 x i8] c"%s:%d:%d-%d: (W0) %s: %s\0A\00", align 1
@.str.88 = private unnamed_addr constant [24 x i8] c"%s:%d.%d-%d.%d: %s: %s\0A\00", align 1

; Function Attrs: mustprogress nounwind uwtable
define internal void @_ZL6report12ReportFormatPKcRKN4Luau8LocationES1_S1_(i32 noundef %0, ptr noundef %1, ptr noundef nonnull align 4 dereferenceable(16) %2, ptr noundef %3, ptr noundef %4) #7 {
  %6 = alloca i32, align 4
  %7 = alloca ptr, align 8
  %8 = alloca ptr, align 8
  %9 = alloca ptr, align 8
  %10 = alloca ptr, align 8
  %11 = alloca i32, align 4
  store i32 %0, ptr %6, align 4, !tbaa !15
  store ptr %1, ptr %7, align 8, !tbaa !13
  store ptr %2, ptr %8, align 8, !tbaa !260
  store ptr %3, ptr %9, align 8, !tbaa !13
  store ptr %4, ptr %10, align 8, !tbaa !13
  %12 = load i32, ptr %6, align 4, !tbaa !15
  switch i32 %12, label %88 [
    i32 0, label %13
    i32 1, label %29
    i32 2, label %63
  ]

13:                                               ; preds = %5
  %14 = load ptr, ptr @stderr, align 8, !tbaa !27
  %15 = load ptr, ptr %7, align 8, !tbaa !13
  %16 = load ptr, ptr %8, align 8, !tbaa !260
  %17 = getelementptr inbounds nuw %"struct.Luau::Location", ptr %16, i32 0, i32 0
  %18 = getelementptr inbounds nuw %"struct.Luau::Position", ptr %17, i32 0, i32 0
  %19 = load i32, ptr %18, align 4, !tbaa !272
  %20 = add i32 %19, 1
  %21 = load ptr, ptr %8, align 8, !tbaa !260
  %22 = getelementptr inbounds nuw %"struct.Luau::Location", ptr %21, i32 0, i32 0
  %23 = getelementptr inbounds nuw %"struct.Luau::Position", ptr %22, i32 0, i32 1
  %24 = load i32, ptr %23, align 4, !tbaa !275
  %25 = add i32 %24, 1
  %26 = load ptr, ptr %9, align 8, !tbaa !13
  %27 = load ptr, ptr %10, align 8, !tbaa !13
  %28 = call i32 (ptr, ptr, ...) @fprintf(ptr noundef %14, ptr noundef @.str.86, ptr noundef %15, i32 noundef %20, i32 noundef %25, ptr noundef %26, ptr noundef %27) #24
  br label %88

29:                                               ; preds = %5
  call void @llvm.lifetime.start.p0(i64 4, ptr %11) #24
  %30 = load ptr, ptr %8, align 8, !tbaa !260
  %31 = getelementptr inbounds nuw %"struct.Luau::Location", ptr %30, i32 0, i32 0
  %32 = getelementptr inbounds nuw %"struct.Luau::Position", ptr %31, i32 0, i32 0
  %33 = load i32, ptr %32, align 4, !tbaa !272
  %34 = load ptr, ptr %8, align 8, !tbaa !260
  %35 = getelementptr inbounds nuw %"struct.Luau::Location", ptr %34, i32 0, i32 1
  %36 = getelementptr inbounds nuw %"struct.Luau::Position", ptr %35, i32 0, i32 0
  %37 = load i32, ptr %36, align 4, !tbaa !276
  %38 = icmp eq i32 %33, %37
  br i1 %38, label %39, label %44

39:                                               ; preds = %29
  %40 = load ptr, ptr %8, align 8, !tbaa !260
  %41 = getelementptr inbounds nuw %"struct.Luau::Location", ptr %40, i32 0, i32 1
  %42 = getelementptr inbounds nuw %"struct.Luau::Position", ptr %41, i32 0, i32 1
  %43 = load i32, ptr %42, align 4, !tbaa !277
  br label %45

44:                                               ; preds = %29
  br label %45

45:                                               ; preds = %44, %39
  %46 = phi i32 [ %43, %39 ], [ 100, %44 ]
  store i32 %46, ptr %11, align 4, !tbaa !4
  %47 = load ptr, ptr @stdout, align 8, !tbaa !27
  %48 = load ptr, ptr %7, align 8, !tbaa !13
  %49 = load ptr, ptr %8, align 8, !tbaa !260
  %50 = getelementptr inbounds nuw %"struct.Luau::Location", ptr %49, i32 0, i32 0
  %51 = getelementptr inbounds nuw %"struct.Luau::Position", ptr %50, i32 0, i32 0
  %52 = load i32, ptr %51, align 4, !tbaa !272
  %53 = add i32 %52, 1
  %54 = load ptr, ptr %8, align 8, !tbaa !260
  %55 = getelementptr inbounds nuw %"struct.Luau::Location", ptr %54, i32 0, i32 0
  %56 = getelementptr inbounds nuw %"struct.Luau::Position", ptr %55, i32 0, i32 1
  %57 = load i32, ptr %56, align 4, !tbaa !275
  %58 = add i32 %57, 1
  %59 = load i32, ptr %11, align 4, !tbaa !4
  %60 = load ptr, ptr %9, align 8, !tbaa !13
  %61 = load ptr, ptr %10, align 8, !tbaa !13
  %62 = call i32 (ptr, ptr, ...) @fprintf(ptr noundef %47, ptr noundef @.str.87, ptr noundef %48, i32 noundef %53, i32 noundef %58, i32 noundef %59, ptr noundef %60, ptr noundef %61) #24
  call void @llvm.lifetime.end.p0(i64 4, ptr %11) #24
  br label %88

63:                                               ; preds = %5
  %64 = load ptr, ptr @stderr, align 8, !tbaa !27
  %65 = load ptr, ptr %7, align 8, !tbaa !13
  %66 = load ptr, ptr %8, align 8, !tbaa !260
  %67 = getelementptr inbounds nuw %"struct.Luau::Location", ptr %66, i32 0, i32 0
  %68 = getelementptr inbounds nuw %"struct.Luau::Position", ptr %67, i32 0, i32 0
  %69 = load i32, ptr %68, align 4, !tbaa !272
  %70 = add i32 %69, 1
  %71 = load ptr, ptr %8, align 8, !tbaa !260
  %72 = getelementptr inbounds nuw %"struct.Luau::Location", ptr %71, i32 0, i32 0
  %73 = getelementptr inbounds nuw %"struct.Luau::Position", ptr %72, i32 0, i32 1
  %74 = load i32, ptr %73, align 4, !tbaa !275
  %75 = add i32 %74, 1
  %76 = load ptr, ptr %8, align 8, !tbaa !260
  %77 = getelementptr inbounds nuw %"struct.Luau::Location", ptr %76, i32 0, i32 1
  %78 = getelementptr inbounds nuw %"struct.Luau::Position", ptr %77, i32 0, i32 0
  %79 = load i32, ptr %78, align 4, !tbaa !276
  %80 = add i32 %79, 1
  %81 = load ptr, ptr %8, align 8, !tbaa !260
  %82 = getelementptr inbounds nuw %"struct.Luau::Location", ptr %81, i32 0, i32 1
  %83 = getelementptr inbounds nuw %"struct.Luau::Position", ptr %82, i32 0, i32 1
  %84 = load i32, ptr %83, align 4, !tbaa !277
  %85 = load ptr, ptr %9, align 8, !tbaa !13
  %86 = load ptr, ptr %10, align 8, !tbaa !13
  %87 = call i32 (ptr, ptr, ...) @fprintf(ptr noundef %64, ptr noundef @.str.88, ptr noundef %65, i32 noundef %70, i32 noundef %75, i32 noundef %80, i32 noundef %84, ptr noundef %85, ptr noundef %86) #24
  br label %88

88:                                               ; preds = %5, %63, %45, %13
  ret void
}