; Function Attrs: mustprogress nofree norecurse nounwind uwtable
define internal fastcc void @_ZL6report12ReportFormatPKcRKN4Luau8LocationES1_S1_(i32 noundef range(i32 0, 3) %0, ptr noundef %1, ptr noundef nonnull readonly align 4 captures(none) dereferenceable(16) %2, ptr noundef %3, ptr noundef %4) unnamed_addr #13 {
  switch i32 %0, label %default.unreachable21 [
    i32 0, label %6
    i32 1, label %14
    i32 2, label %28
  ]

6:                                                ; preds = %5
  %7 = load ptr, ptr @stderr, align 8, !tbaa !28
  %8 = load i32, ptr %2, align 4, !tbaa !218
  %9 = add i32 %8, 1
  %10 = getelementptr inbounds nuw i8, ptr %2, i64 4
  %11 = load i32, ptr %10, align 4, !tbaa !221
  %12 = add i32 %11, 1
  %13 = tail call i32 (ptr, ptr, ...) @fprintf(ptr noundef %7, ptr noundef nonnull @.str.86, ptr noundef %1, i32 noundef %9, i32 noundef %12, ptr noundef %3, ptr noundef %4) #34
  br label %41

14:                                               ; preds = %5
  %15 = load i32, ptr %2, align 4, !tbaa !218
  %16 = getelementptr inbounds nuw i8, ptr %2, i64 8
  %17 = load i32, ptr %16, align 4, !tbaa !222
  %18 = icmp eq i32 %15, %17
  %19 = getelementptr inbounds nuw i8, ptr %2, i64 12
  %20 = load i32, ptr %19, align 4
  %21 = select i1 %18, i32 %20, i32 100
  %22 = load ptr, ptr @stdout, align 8, !tbaa !28
  %23 = add i32 %15, 1
  %24 = getelementptr inbounds nuw i8, ptr %2, i64 4
  %25 = load i32, ptr %24, align 4, !tbaa !221
  %26 = add i32 %25, 1
  %27 = tail call i32 (ptr, ptr, ...) @fprintf(ptr noundef %22, ptr noundef nonnull @.str.87, ptr noundef %1, i32 noundef %23, i32 noundef %26, i32 noundef %21, ptr noundef %3, ptr noundef %4) #30
  br label %41

28:                                               ; preds = %5
  %29 = load ptr, ptr @stderr, align 8, !tbaa !28
  %30 = load i32, ptr %2, align 4, !tbaa !218
  %31 = add i32 %30, 1
  %32 = getelementptr inbounds nuw i8, ptr %2, i64 4
  %33 = load i32, ptr %32, align 4, !tbaa !221
  %34 = add i32 %33, 1
  %35 = getelementptr inbounds nuw i8, ptr %2, i64 8
  %36 = load i32, ptr %35, align 4, !tbaa !222
  %37 = add i32 %36, 1
  %38 = getelementptr inbounds nuw i8, ptr %2, i64 12
  %39 = load i32, ptr %38, align 4, !tbaa !223
  %40 = tail call i32 (ptr, ptr, ...) @fprintf(ptr noundef %29, ptr noundef nonnull @.str.88, ptr noundef %1, i32 noundef %31, i32 noundef %34, i32 noundef %37, i32 noundef %39, ptr noundef %3, ptr noundef %4) #34
  br label %41

default.unreachable21:                            ; preds = %5
  unreachable

41:                                               ; preds = %28, %14, %6
  ret void
}